target datalayout = "e-m:e-p270:32:32-p271:32:32-p272:64:64-i64:64-i128:128-f80:128-n8:16:32:64-S128"
target triple = "x86_64-pc-linux-gnu"

%struct.AVHWDeviceContext = type { ptr, i32, ptr, ptr, ptr }
%struct.AVVAAPIDeviceContext = type { ptr, i32 }
%struct._VAImageFormat = type { i32, i32, i32, i32, i32, i32, i32, i32, [4 x i32] }
%struct._VAImage = type { i32, %struct._VAImageFormat, i32, i16, i16, i32, i32, [3 x i32], [3 x i32], i32, i32, [4 x i8], [4 x i32] }
%struct.AVHWFramesContext = type { ptr, ptr, ptr, ptr, ptr, ptr, ptr, i32, i32, i32, i32, i32 }
%struct.AVFrame = type { [8 x ptr], [8 x i32], ptr, i32, i32, i32, i32, i32, %struct.AVRational, i64, i64, %struct.AVRational, i32, ptr, i32, i32, [8 x ptr], ptr, i32, ptr, i32, i32, i32, i32, i32, i32, i32, i64, ptr, i32, ptr, ptr, i64, i64, i64, i64, ptr, %struct.AVChannelLayout, i64 }
%struct.AVRational = type { i32, i32 }
%struct.AVChannelLayout = type { i32, i32, %union.anon.2, ptr }
%union.anon.2 = type { i64 }
%struct.HWMapDescriptor = type { ptr, ptr, ptr, ptr }
%struct.AVDRMFrameDescriptor = type { i32, [4 x %struct.AVDRMObjectDescriptor], i32, [4 x %struct.AVDRMLayerDescriptor] }
%struct.AVDRMObjectDescriptor = type { i32, i64, i64 }
%struct.AVDRMLayerDescriptor = type { i32, i32, [4 x %struct.AVDRMPlaneDescriptor] }
%struct.AVDRMPlaneDescriptor = type { i32, i64, i64 }
%struct.VAAPIDRMImageBufferMapping = type { %struct._VAImage, %struct.VABufferInfo, %struct.AVDRMFrameDescriptor }
%struct.VABufferInfo = type { i64, i32, i32, i64, [4 x i32] }

@.str.94 = private unnamed_addr constant [35 x i8] c"Unmap VAAPI surface %#x from DRM.\0A\00", align 1
@.str.95 = private unnamed_addr constant [83 x i8] c"Failed to release buffer handle of image %#x (derived from surface %#x): %d (%s).\0A\00", align 1
@.str.96 = private unnamed_addr constant [60 x i8] c"Failed to destroy image derived from surface %#x: %d (%s).\0A\00", align 1

; Function Attrs: nounwind uwtable
define internal void @vaapi_unmap_to_drm_abh(ptr noundef %0, ptr noundef %1) #0 {
  %3 = alloca ptr, align 8
  %4 = alloca ptr, align 8
  %5 = alloca ptr, align 8
  %6 = alloca ptr, align 8
  %7 = alloca i32, align 4
  %8 = alloca i32, align 4
  store ptr %0, ptr %3, align 8, !tbaa !97
  store ptr %1, ptr %4, align 8, !tbaa !176
  call void @llvm.lifetime.start.p0(i64 8, ptr %5) #10
  %9 = load ptr, ptr %3, align 8, !tbaa !97
  %10 = getelementptr inbounds nuw %struct.AVHWFramesContext, ptr %9, i32 0, i32 2
  %11 = load ptr, ptr %10, align 8, !tbaa !107
  %12 = getelementptr inbounds nuw %struct.AVHWDeviceContext, ptr %11, i32 0, i32 2
  %13 = load ptr, ptr %12, align 8, !tbaa !43
  store ptr %13, ptr %5, align 8, !tbaa !52
  call void @llvm.lifetime.start.p0(i64 8, ptr %6) #10
  %14 = load ptr, ptr %4, align 8, !tbaa !176
  %15 = getelementptr inbounds nuw %struct.HWMapDescriptor, ptr %14, i32 0, i32 3
  %16 = load ptr, ptr %15, align 8, !tbaa !178
  store ptr %16, ptr %6, align 8, !tbaa !235
  call void @llvm.lifetime.start.p0(i64 4, ptr %7) #10
  call void @llvm.lifetime.start.p0(i64 4, ptr %8) #10
  %17 = load ptr, ptr %4, align 8, !tbaa !176
  %18 = getelementptr inbounds nuw %struct.HWMapDescriptor, ptr %17, i32 0, i32 0
  %19 = load ptr, ptr %18, align 8, !tbaa !180
  %20 = getelementptr inbounds nuw %struct.AVFrame, ptr %19, i32 0, i32 0
  %21 = getelementptr inbounds [8 x ptr], ptr %20, i64 0, i64 3
  %22 = load ptr, ptr %21, align 8, !tbaa !9
  %23 = ptrtoint ptr %22 to i64
  %24 = trunc i64 %23 to i32
  store i32 %24, ptr %7, align 4, !tbaa !13
  %25 = load ptr, ptr %3, align 8, !tbaa !97
  %26 = load i32, ptr %7, align 4, !tbaa !13
  call void (ptr, i32, ptr, ...) @av_log(ptr noundef %25, i32 noundef 48, ptr noundef @.str.94, i32 noundef %26)
  %27 = load ptr, ptr %5, align 8, !tbaa !52
  %28 = getelementptr inbounds nuw %struct.AVVAAPIDeviceContext, ptr %27, i32 0, i32 0
  %29 = load ptr, ptr %28, align 8, !tbaa !56
  %30 = load ptr, ptr %6, align 8, !tbaa !235
  %31 = getelementptr inbounds nuw %struct.VAAPIDRMImageBufferMapping, ptr %30, i32 0, i32 0
  %32 = getelementptr inbounds nuw %struct._VAImage, ptr %31, i32 0, i32 2
  %33 = load i32, ptr %32, align 4, !tbaa !248
  %34 = call i32 @vaReleaseBufferHandle(ptr noundef %29, i32 noundef %33)
  store i32 %34, ptr %8, align 4, !tbaa !13
  %35 = load i32, ptr %8, align 4, !tbaa !13
  %36 = icmp ne i32 %35, 0
  br i1 %36, label %37, label %47

37:                                               ; preds = %2
  %38 = load ptr, ptr %3, align 8, !tbaa !97
  %39 = load ptr, ptr %6, align 8, !tbaa !235
  %40 = getelementptr inbounds nuw %struct.VAAPIDRMImageBufferMapping, ptr %39, i32 0, i32 0
  %41 = getelementptr inbounds nuw %struct._VAImage, ptr %40, i32 0, i32 2
  %42 = load i32, ptr %41, align 4, !tbaa !248
  %43 = load i32, ptr %7, align 4, !tbaa !13
  %44 = load i32, ptr %8, align 4, !tbaa !13
  %45 = load i32, ptr %8, align 4, !tbaa !13
  %46 = call ptr @vaErrorStr(i32 noundef %45)
  call void (ptr, i32, ptr, ...) @av_log(ptr noundef %38, i32 noundef 16, ptr noundef @.str.95, i32 noundef %42, i32 noundef %43, i32 noundef %44, ptr noundef %46)
  br label %47

47:                                               ; preds = %37, %2
  %48 = load ptr, ptr %5, align 8, !tbaa !52
  %49 = getelementptr inbounds nuw %struct.AVVAAPIDeviceContext, ptr %48, i32 0, i32 0
  %50 = load ptr, ptr %49, align 8, !tbaa !56
  %51 = load ptr, ptr %6, align 8, !tbaa !235
  %52 = getelementptr inbounds nuw %struct.VAAPIDRMImageBufferMapping, ptr %51, i32 0, i32 0
  %53 = getelementptr inbounds nuw %struct._VAImage, ptr %52, i32 0, i32 0
  %54 = load i32, ptr %53, align 8, !tbaa !252
  %55 = call i32 @vaDestroyImage(ptr noundef %50, i32 noundef %54)
  store i32 %55, ptr %8, align 4, !tbaa !13
  %56 = load i32, ptr %8, align 4, !tbaa !13
  %57 = icmp ne i32 %56, 0
  br i1 %57, label %58, label %64

58:                                               ; preds = %47
  %59 = load ptr, ptr %3, align 8, !tbaa !97
  %60 = load i32, ptr %7, align 4, !tbaa !13
  %61 = load i32, ptr %8, align 4, !tbaa !13
  %62 = load i32, ptr %8, align 4, !tbaa !13
  %63 = call ptr @vaErrorStr(i32 noundef %62)
  call void (ptr, i32, ptr, ...) @av_log(ptr noundef %59, i32 noundef 16, ptr noundef @.str.96, i32 noundef %60, i32 noundef %61, ptr noundef %63)
  br label %64

64:                                               ; preds = %58, %47
  %65 = load ptr, ptr %6, align 8, !tbaa !235
  call void @av_free(ptr noundef %65)
  call void @llvm.lifetime.end.p0(i64 4, ptr %8) #10
  call void @llvm.lifetime.end.p0(i64 4, ptr %7) #10
  call void @llvm.lifetime.end.p0(i64 8, ptr %6) #10
  call void @llvm.lifetime.end.p0(i64 8, ptr %5) #10
  ret void
}