; Function Attrs: nounwind uwtable
define internal void @vaapi_unmap_to_drm_abh(ptr noundef %0, ptr noundef readonly captures(none) %1) #0 {
  %3 = getelementptr inbounds nuw i8, ptr %0, i64 16
  %4 = load ptr, ptr %3, align 8, !tbaa !80
  %5 = getelementptr inbounds nuw i8, ptr %4, i64 16
  %6 = load ptr, ptr %5, align 8, !tbaa !31
  %7 = getelementptr inbounds nuw i8, ptr %1, i64 24
  %8 = load ptr, ptr %7, align 8, !tbaa !215
  %9 = load ptr, ptr %1, align 8, !tbaa !217
  %10 = getelementptr inbounds nuw i8, ptr %9, i64 24
  %11 = load ptr, ptr %10, align 8, !tbaa !112
  %12 = ptrtoint ptr %11 to i64
  %13 = trunc i64 %12 to i32
  tail call void (ptr, i32, ptr, ...) @av_log(ptr noundef %0, i32 noundef 48, ptr noundef nonnull @.str.94, i32 noundef %13) #11
  %14 = load ptr, ptr %6, align 8, !tbaa !34
  %15 = getelementptr inbounds nuw i8, ptr %8, i64 52
  %16 = load i32, ptr %15, align 4, !tbaa !201
  %17 = tail call i32 @vaReleaseBufferHandle(ptr noundef %14, i32 noundef %16) #11
  %.not = icmp eq i32 %17, 0
  br i1 %.not, label %21, label %18

18:                                               ; preds = %2
  %19 = load i32, ptr %15, align 4, !tbaa !201
  %20 = tail call ptr @vaErrorStr(i32 noundef %17) #11
  tail call void (ptr, i32, ptr, ...) @av_log(ptr noundef nonnull %0, i32 noundef 16, ptr noundef nonnull @.str.95, i32 noundef %19, i32 noundef %13, i32 noundef %17, ptr noundef %20) #11
  br label %21

21:                                               ; preds = %18, %2
  %22 = load ptr, ptr %6, align 8, !tbaa !34
  %23 = load i32, ptr %8, align 8, !tbaa !205
  %24 = tail call i32 @vaDestroyImage(ptr noundef %22, i32 noundef %23) #11
  %.not21 = icmp eq i32 %24, 0
  br i1 %.not21, label %27, label %25

25:                                               ; preds = %21
  %26 = tail call ptr @vaErrorStr(i32 noundef %24) #11
  tail call void (ptr, i32, ptr, ...) @av_log(ptr noundef nonnull %0, i32 noundef 16, ptr noundef nonnull @.str.96, i32 noundef %13, i32 noundef %24, ptr noundef %26) #11
  br label %27

27:                                               ; preds = %25, %21
  tail call void @av_free(ptr noundef nonnull %8) #11
  ret void
}